(dp0
I0
S'../classification_data/backup/0RawData.pkl'
p1
sI1
S'../classification_data/backup/6RawData.pkl'
p2
sI2
S'../classification_data/backup/5RawData.pkl'
p3
sI3
S'../classification_data/backup/9RawData.pkl'
p4
sI4
S'../classification_data/backup/7RawData.pkl'
p5
sI5
S'../classification_data/backup/3RawData.pkl'
p6
sI6
S'../classification_data/backup/ENDRawData.pkl'
p7
sI7
S'../classification_data/backup/1RawData.pkl'
p8
sI8
S'../classification_data/backup/4RawData.pkl'
p9
sI9
S'../classification_data/backup/NOPRawData.pkl'
p10
sI10
S'../classification_data/backup/8RawData.pkl'
p11
sI11
S'../classification_data/backup/CallMacroRawData.pkl'
p12
sI12
S'../classification_data/backup/DigitRawData.pkl'
p13
sI13
S'../classification_data/backup/RecordMacroRawData.pkl'
p14
sI14
S'../classification_data/backup/NegateRawData.pkl'
p15
sI15
S'../classification_data/backup/2RawData.pkl'
p16
s.