(dp0
I0
S'../classification_data/0RawData.pkl'
p1
sI1
S'../classification_data/6RawData.pkl'
p2
sI2
S'../classification_data/5RawData.pkl'
p3
sI3
S'../classification_data/WaitRawData.pkl'
p4
sI4
S'../classification_data/MoveXRawData.pkl'
p5
sI5
S'../classification_data/9RawData.pkl'
p6
sI6
S'../classification_data/RepeatRawData.pkl'
p7
sI7
S'../classification_data/7RawData.pkl'
p8
sI8
S'../classification_data/3RawData.pkl'
p9
sI9
S'../classification_data/ENDRawData.pkl'
p10
sI10
S'../classification_data/1RawData.pkl'
p11
sI11
S'../classification_data/4RawData.pkl'
p12
sI12
S'../classification_data/NOPRawData.pkl'
p13
sI13
S'../classification_data/8RawData.pkl'
p14
sI14
S'../classification_data/MoveZRawData.pkl'
p15
sI15
S'../classification_data/CallMacroRawData.pkl'
p16
sI16
S'../classification_data/DigitRawData.pkl'
p17
sI17
S'../classification_data/MoveYRawData.pkl'
p18
sI18
S'../classification_data/RecordMacroRawData.pkl'
p19
sI19
S'../classification_data/NegateRawData.pkl'
p20
sI20
S'../classification_data/2RawData.pkl'
p21
s.